target datalayout = "e-m:e-p270:32:32-p271:32:32-p272:64:64-i64:64-i128:128-f80:128-n8:16:32:64-S128"
target triple = "x86_64-unknown-linux-gnu"

%struct.dsa_st = type { i64, ptr, ptr, ptr, ptr, ptr, ptr, ptr, i32, %union.crypto_mutex_st, ptr, i32, %struct.crypto_ex_data_st }
%union.crypto_mutex_st = type { double, [48 x i8] }
%struct.crypto_ex_data_st = type { ptr }
%struct.bignum_st = type { ptr, i32, i32, i32, i32 }
%struct.DSA_SIG_st = type { ptr, ptr }

@.str = private unnamed_addr constant [120 x i8] c"generated/home/dtcxzyw/WorkSpace/Projects/compilers/llvm-opt-benchmark/bench/libquic/libquic/boringssl/crypto/dsa/dsa.c\00", align 1

; Function Attrs: nounwind uwtable
define hidden i32 @DSA_do_check_signature(ptr noundef %out_valid, ptr noundef %digest, i64 noundef %digest_len, ptr noundef %sig, ptr noundef %dsa) #0 {
entry:
  %retval = alloca i32, align 4
  %out_valid.addr = alloca ptr, align 8
  %digest.addr = alloca ptr, align 8
  %digest_len.addr = alloca i64, align 8
  %sig.addr = alloca ptr, align 8
  %dsa.addr = alloca ptr, align 8
  %ctx = alloca ptr, align 8
  %u1 = alloca %struct.bignum_st, align 8
  %u2 = alloca %struct.bignum_st, align 8
  %t1 = alloca %struct.bignum_st, align 8
  %ret = alloca i32, align 4
  %i = alloca i32, align 4
  store ptr %out_valid, ptr %out_valid.addr, align 8
  store ptr %digest, ptr %digest.addr, align 8
  store i64 %digest_len, ptr %digest_len.addr, align 8
  store ptr %sig, ptr %sig.addr, align 8
  store ptr %dsa, ptr %dsa.addr, align 8
  store i32 0, ptr %ret, align 4
  %0 = load ptr, ptr %out_valid.addr, align 8
  store i32 0, ptr %0, align 4
  %1 = load ptr, ptr %dsa.addr, align 8
  %p = getelementptr inbounds %struct.dsa_st, ptr %1, i32 0, i32 1
  %2 = load ptr, ptr %p, align 8
  %tobool = icmp ne ptr %2, null
  br i1 %tobool, label %lor.lhs.false, label %if.then

lor.lhs.false:                                    ; preds = %entry
  %3 = load ptr, ptr %dsa.addr, align 8
  %q = getelementptr inbounds %struct.dsa_st, ptr %3, i32 0, i32 2
  %4 = load ptr, ptr %q, align 8
  %tobool1 = icmp ne ptr %4, null
  br i1 %tobool1, label %lor.lhs.false2, label %if.then

lor.lhs.false2:                                   ; preds = %lor.lhs.false
  %5 = load ptr, ptr %dsa.addr, align 8
  %g = getelementptr inbounds %struct.dsa_st, ptr %5, i32 0, i32 3
  %6 = load ptr, ptr %g, align 8
  %tobool3 = icmp ne ptr %6, null
  br i1 %tobool3, label %if.end, label %if.then

if.then:                                          ; preds = %lor.lhs.false2, %lor.lhs.false, %entry
  call void @ERR_put_error(i32 noundef 10, i32 noundef 0, i32 noundef 101, ptr noundef @.str, i32 noundef 600)
  store i32 0, ptr %retval, align 4
  br label %return

if.end:                                           ; preds = %lor.lhs.false2
  %7 = load ptr, ptr %dsa.addr, align 8
  %q4 = getelementptr inbounds %struct.dsa_st, ptr %7, i32 0, i32 2
  %8 = load ptr, ptr %q4, align 8
  %call = call i32 @BN_num_bits(ptr noundef %8)
  store i32 %call, ptr %i, align 4
  %9 = load i32, ptr %i, align 4
  %cmp = icmp ne i32 %9, 160
  br i1 %cmp, label %land.lhs.true, label %if.end9

land.lhs.true:                                    ; preds = %if.end
  %10 = load i32, ptr %i, align 4
  %cmp5 = icmp ne i32 %10, 224
  br i1 %cmp5, label %land.lhs.true6, label %if.end9

land.lhs.true6:                                   ; preds = %land.lhs.true
  %11 = load i32, ptr %i, align 4
  %cmp7 = icmp ne i32 %11, 256
  br i1 %cmp7, label %if.then8, label %if.end9

if.then8:                                         ; preds = %land.lhs.true6
  call void @ERR_put_error(i32 noundef 10, i32 noundef 0, i32 noundef 100, ptr noundef @.str, i32 noundef 607)
  store i32 0, ptr %retval, align 4
  br label %return

if.end9:                                          ; preds = %land.lhs.true6, %land.lhs.true, %if.end
  %12 = load ptr, ptr %dsa.addr, align 8
  %p10 = getelementptr inbounds %struct.dsa_st, ptr %12, i32 0, i32 1
  %13 = load ptr, ptr %p10, align 8
  %call11 = call i32 @BN_num_bits(ptr noundef %13)
  %cmp12 = icmp ugt i32 %call11, 10000
  br i1 %cmp12, label %if.then13, label %if.end14

if.then13:                                        ; preds = %if.end9
  call void @ERR_put_error(i32 noundef 10, i32 noundef 0, i32 noundef 102, ptr noundef @.str, i32 noundef 612)
  store i32 0, ptr %retval, align 4
  br label %return

if.end14:                                         ; preds = %if.end9
  call void @BN_init(ptr noundef %u1)
  call void @BN_init(ptr noundef %u2)
  call void @BN_init(ptr noundef %t1)
  %call15 = call ptr @BN_CTX_new()
  store ptr %call15, ptr %ctx, align 8
  %14 = load ptr, ptr %ctx, align 8
  %cmp16 = icmp eq ptr %14, null
  br i1 %cmp16, label %if.then17, label %if.end18

if.then17:                                        ; preds = %if.end14
  br label %err

if.end18:                                         ; preds = %if.end14
  %15 = load ptr, ptr %sig.addr, align 8
  %r = getelementptr inbounds %struct.DSA_SIG_st, ptr %15, i32 0, i32 0
  %16 = load ptr, ptr %r, align 8
  %call19 = call i32 @BN_is_zero(ptr noundef %16)
  %tobool20 = icmp ne i32 %call19, 0
  br i1 %tobool20, label %if.then30, label %lor.lhs.false21

lor.lhs.false21:                                  ; preds = %if.end18
  %17 = load ptr, ptr %sig.addr, align 8
  %r22 = getelementptr inbounds %struct.DSA_SIG_st, ptr %17, i32 0, i32 0
  %18 = load ptr, ptr %r22, align 8
  %call23 = call i32 @BN_is_negative(ptr noundef %18)
  %tobool24 = icmp ne i32 %call23, 0
  br i1 %tobool24, label %if.then30, label %lor.lhs.false25

lor.lhs.false25:                                  ; preds = %lor.lhs.false21
  %19 = load ptr, ptr %sig.addr, align 8
  %r26 = getelementptr inbounds %struct.DSA_SIG_st, ptr %19, i32 0, i32 0
  %20 = load ptr, ptr %r26, align 8
  %21 = load ptr, ptr %dsa.addr, align 8
  %q27 = getelementptr inbounds %struct.dsa_st, ptr %21, i32 0, i32 2
  %22 = load ptr, ptr %q27, align 8
  %call28 = call i32 @BN_ucmp(ptr noundef %20, ptr noundef %22)
  %cmp29 = icmp sge i32 %call28, 0
  br i1 %cmp29, label %if.then30, label %if.end31

if.then30:                                        ; preds = %lor.lhs.false25, %lor.lhs.false21, %if.end18
  store i32 1, ptr %ret, align 4
  br label %err

if.end31:                                         ; preds = %lor.lhs.false25
  %23 = load ptr, ptr %sig.addr, align 8
  %s = getelementptr inbounds %struct.DSA_SIG_st, ptr %23, i32 0, i32 1
  %24 = load ptr, ptr %s, align 8
  %call32 = call i32 @BN_is_zero(ptr noundef %24)
  %tobool33 = icmp ne i32 %call32, 0
  br i1 %tobool33, label %if.then43, label %lor.lhs.false34

lor.lhs.false34:                                  ; preds = %if.end31
  %25 = load ptr, ptr %sig.addr, align 8
  %s35 = getelementptr inbounds %struct.DSA_SIG_st, ptr %25, i32 0, i32 1
  %26 = load ptr, ptr %s35, align 8
  %call36 = call i32 @BN_is_negative(ptr noundef %26)
  %tobool37 = icmp ne i32 %call36, 0
  br i1 %tobool37, label %if.then43, label %lor.lhs.false38

lor.lhs.false38:                                  ; preds = %lor.lhs.false34
  %27 = load ptr, ptr %sig.addr, align 8
  %s39 = getelementptr inbounds %struct.DSA_SIG_st, ptr %27, i32 0, i32 1
  %28 = load ptr, ptr %s39, align 8
  %29 = load ptr, ptr %dsa.addr, align 8
  %q40 = getelementptr inbounds %struct.dsa_st, ptr %29, i32 0, i32 2
  %30 = load ptr, ptr %q40, align 8
  %call41 = call i32 @BN_ucmp(ptr noundef %28, ptr noundef %30)
  %cmp42 = icmp sge i32 %call41, 0
  br i1 %cmp42, label %if.then43, label %if.end44

if.then43:                                        ; preds = %lor.lhs.false38, %lor.lhs.false34, %if.end31
  store i32 1, ptr %ret, align 4
  br label %err

if.end44:                                         ; preds = %lor.lhs.false38
  %31 = load ptr, ptr %sig.addr, align 8
  %s45 = getelementptr inbounds %struct.DSA_SIG_st, ptr %31, i32 0, i32 1
  %32 = load ptr, ptr %s45, align 8
  %33 = load ptr, ptr %dsa.addr, align 8
  %q46 = getelementptr inbounds %struct.dsa_st, ptr %33, i32 0, i32 2
  %34 = load ptr, ptr %q46, align 8
  %35 = load ptr, ptr %ctx, align 8
  %call47 = call ptr @BN_mod_inverse(ptr noundef %u2, ptr noundef %32, ptr noundef %34, ptr noundef %35)
  %cmp48 = icmp eq ptr %call47, null
  br i1 %cmp48, label %if.then49, label %if.end50

if.then49:                                        ; preds = %if.end44
  br label %err

if.end50:                                         ; preds = %if.end44
  %36 = load i64, ptr %digest_len.addr, align 8
  %37 = load i32, ptr %i, align 4
  %shr = lshr i32 %37, 3
  %conv = zext i32 %shr to i64
  %cmp51 = icmp ugt i64 %36, %conv
  br i1 %cmp51, label %if.then53, label %if.end56

if.then53:                                        ; preds = %if.end50
  %38 = load i32, ptr %i, align 4
  %shr54 = lshr i32 %38, 3
  %conv55 = zext i32 %shr54 to i64
  store i64 %conv55, ptr %digest_len.addr, align 8
  br label %if.end56

if.end56:                                         ; preds = %if.then53, %if.end50
  %39 = load ptr, ptr %digest.addr, align 8
  %40 = load i64, ptr %digest_len.addr, align 8
  %call57 = call ptr @BN_bin2bn(ptr noundef %39, i64 noundef %40, ptr noundef %u1)
  %cmp58 = icmp eq ptr %call57, null
  br i1 %cmp58, label %if.then60, label %if.end61

if.then60:                                        ; preds = %if.end56
  br label %err

if.end61:                                         ; preds = %if.end56
  %41 = load ptr, ptr %dsa.addr, align 8
  %q62 = getelementptr inbounds %struct.dsa_st, ptr %41, i32 0, i32 2
  %42 = load ptr, ptr %q62, align 8
  %43 = load ptr, ptr %ctx, align 8
  %call63 = call i32 @BN_mod_mul(ptr noundef %u1, ptr noundef %u1, ptr noundef %u2, ptr noundef %42, ptr noundef %43)
  %tobool64 = icmp ne i32 %call63, 0
  br i1 %tobool64, label %if.end66, label %if.then65

if.then65:                                        ; preds = %if.end61
  br label %err

if.end66:                                         ; preds = %if.end61
  %44 = load ptr, ptr %sig.addr, align 8
  %r67 = getelementptr inbounds %struct.DSA_SIG_st, ptr %44, i32 0, i32 0
  %45 = load ptr, ptr %r67, align 8
  %46 = load ptr, ptr %dsa.addr, align 8
  %q68 = getelementptr inbounds %struct.dsa_st, ptr %46, i32 0, i32 2
  %47 = load ptr, ptr %q68, align 8
  %48 = load ptr, ptr %ctx, align 8
  %call69 = call i32 @BN_mod_mul(ptr noundef %u2, ptr noundef %45, ptr noundef %u2, ptr noundef %47, ptr noundef %48)
  %tobool70 = icmp ne i32 %call69, 0
  br i1 %tobool70, label %if.end72, label %if.then71

if.then71:                                        ; preds = %if.end66
  br label %err

if.end72:                                         ; preds = %if.end66
  %49 = load ptr, ptr %dsa.addr, align 8
  %method_mont_p = getelementptr inbounds %struct.dsa_st, ptr %49, i32 0, i32 10
  %50 = load ptr, ptr %dsa.addr, align 8
  %method_mont_p_lock = getelementptr inbounds %struct.dsa_st, ptr %50, i32 0, i32 9
  %51 = load ptr, ptr %dsa.addr, align 8
  %p73 = getelementptr inbounds %struct.dsa_st, ptr %51, i32 0, i32 1
  %52 = load ptr, ptr %p73, align 8
  %53 = load ptr, ptr %ctx, align 8
  %call74 = call i32 @BN_MONT_CTX_set_locked(ptr noundef %method_mont_p, ptr noundef %method_mont_p_lock, ptr noundef %52, ptr noundef %53)
  %tobool75 = icmp ne i32 %call74, 0
  br i1 %tobool75, label %if.end77, label %if.then76

if.then76:                                        ; preds = %if.end72
  br label %err

if.end77:                                         ; preds = %if.end72
  %54 = load ptr, ptr %dsa.addr, align 8
  %g78 = getelementptr inbounds %struct.dsa_st, ptr %54, i32 0, i32 3
  %55 = load ptr, ptr %g78, align 8
  %56 = load ptr, ptr %dsa.addr, align 8
  %pub_key = getelementptr inbounds %struct.dsa_st, ptr %56, i32 0, i32 4
  %57 = load ptr, ptr %pub_key, align 8
  %58 = load ptr, ptr %dsa.addr, align 8
  %p79 = getelementptr inbounds %struct.dsa_st, ptr %58, i32 0, i32 1
  %59 = load ptr, ptr %p79, align 8
  %60 = load ptr, ptr %ctx, align 8
  %61 = load ptr, ptr %dsa.addr, align 8
  %method_mont_p80 = getelementptr inbounds %struct.dsa_st, ptr %61, i32 0, i32 10
  %62 = load ptr, ptr %method_mont_p80, align 8
  %call81 = call i32 @BN_mod_exp2_mont(ptr noundef %t1, ptr noundef %55, ptr noundef %u1, ptr noundef %57, ptr noundef %u2, ptr noundef %59, ptr noundef %60, ptr noundef %62)
  %tobool82 = icmp ne i32 %call81, 0
  br i1 %tobool82, label %if.end84, label %if.then83

if.then83:                                        ; preds = %if.end77
  br label %err

if.end84:                                         ; preds = %if.end77
  %63 = load ptr, ptr %dsa.addr, align 8
  %q85 = getelementptr inbounds %struct.dsa_st, ptr %63, i32 0, i32 2
  %64 = load ptr, ptr %q85, align 8
  %65 = load ptr, ptr %ctx, align 8
  %call86 = call i32 @BN_div(ptr noundef null, ptr noundef %u1, ptr noundef %t1, ptr noundef %64, ptr noundef %65)
  %tobool87 = icmp ne i32 %call86, 0
  br i1 %tobool87, label %if.end89, label %if.then88

if.then88:                                        ; preds = %if.end84
  br label %err

if.end89:                                         ; preds = %if.end84
  %66 = load ptr, ptr %sig.addr, align 8
  %r90 = getelementptr inbounds %struct.DSA_SIG_st, ptr %66, i32 0, i32 0
  %67 = load ptr, ptr %r90, align 8
  %call91 = call i32 @BN_ucmp(ptr noundef %u1, ptr noundef %67)
  %cmp92 = icmp eq i32 %call91, 0
  %conv93 = zext i1 %cmp92 to i32
  %68 = load ptr, ptr %out_valid.addr, align 8
  store i32 %conv93, ptr %68, align 4
  store i32 1, ptr %ret, align 4
  br label %err

err:                                              ; preds = %if.end89, %if.then88, %if.then83, %if.then76, %if.then71, %if.then65, %if.then60, %if.then49, %if.then43, %if.then30, %if.then17
  %69 = load i32, ptr %ret, align 4
  %cmp94 = icmp ne i32 %69, 1
  br i1 %cmp94, label %if.then96, label %if.end97

if.then96:                                        ; preds = %err
  call void @ERR_put_error(i32 noundef 10, i32 noundef 0, i32 noundef 3, ptr noundef @.str, i32 noundef 688)
  br label %if.end97

if.end97:                                         ; preds = %if.then96, %err
  %70 = load ptr, ptr %ctx, align 8
  call void @BN_CTX_free(ptr noundef %70)
  call void @BN_free(ptr noundef %u1)
  call void @BN_free(ptr noundef %u2)
  call void @BN_free(ptr noundef %t1)
  %71 = load i32, ptr %ret, align 4
  store i32 %71, ptr %retval, align 4
  br label %return

return:                                           ; preds = %if.end97, %if.then13, %if.then8, %if.then
  %72 = load i32, ptr %retval, align 4
  ret i32 %72
}