; Function Attrs: nounwind uwtable
define hidden range(i32 0, 2) i32 @DSA_do_check_signature(ptr noundef writeonly captures(none) initializes((0, 4)) %out_valid, ptr noundef %digest, i64 noundef %digest_len, ptr noundef readonly captures(none) %sig, ptr noundef %dsa) local_unnamed_addr #0 {
entry:
  %u1 = alloca %struct.bignum_st, align 8
  %u2 = alloca %struct.bignum_st, align 8
  %t1 = alloca %struct.bignum_st, align 8
  store i32 0, ptr %out_valid, align 4
  %p = getelementptr inbounds nuw i8, ptr %dsa, i64 8
  %0 = load ptr, ptr %p, align 8
  %tobool.not = icmp eq ptr %0, null
  br i1 %tobool.not, label %if.then, label %lor.lhs.false

lor.lhs.false:                                    ; preds = %entry
  %q = getelementptr inbounds nuw i8, ptr %dsa, i64 16
  %1 = load ptr, ptr %q, align 8
  %tobool1.not = icmp eq ptr %1, null
  br i1 %tobool1.not, label %if.then, label %lor.lhs.false2

lor.lhs.false2:                                   ; preds = %lor.lhs.false
  %g = getelementptr inbounds nuw i8, ptr %dsa, i64 24
  %2 = load ptr, ptr %g, align 8
  %tobool3.not = icmp eq ptr %2, null
  br i1 %tobool3.not, label %if.then, label %if.end

if.then:                                          ; preds = %lor.lhs.false2, %lor.lhs.false, %entry
  tail call void @ERR_put_error(i32 noundef 10, i32 noundef 0, i32 noundef 101, ptr noundef nonnull @.str, i32 noundef 600) #8
  br label %return

if.end:                                           ; preds = %lor.lhs.false2
  %call = tail call i32 @BN_num_bits(ptr noundef nonnull %1) #8
  switch i32 %call, label %if.then8 [
    i32 256, label %if.end9
    i32 224, label %if.end9
    i32 160, label %if.end9
  ]

if.then8:                                         ; preds = %if.end
  tail call void @ERR_put_error(i32 noundef 10, i32 noundef 0, i32 noundef 100, ptr noundef nonnull @.str, i32 noundef 607) #8
  br label %return

if.end9:                                          ; preds = %if.end, %if.end, %if.end
  %3 = load ptr, ptr %p, align 8
  %call11 = tail call i32 @BN_num_bits(ptr noundef %3) #8
  %cmp12 = icmp ugt i32 %call11, 10000
  br i1 %cmp12, label %if.then13, label %if.end14

if.then13:                                        ; preds = %if.end9
  tail call void @ERR_put_error(i32 noundef 10, i32 noundef 0, i32 noundef 102, ptr noundef nonnull @.str, i32 noundef 612) #8
  br label %return

if.end14:                                         ; preds = %if.end9
  call void @BN_init(ptr noundef nonnull %u1) #8
  call void @BN_init(ptr noundef nonnull %u2) #8
  call void @BN_init(ptr noundef nonnull %t1) #8
  %call15 = call ptr @BN_CTX_new() #8
  %cmp16 = icmp eq ptr %call15, null
  br i1 %cmp16, label %if.then96, label %if.end18

if.end18:                                         ; preds = %if.end14
  %4 = load ptr, ptr %sig, align 8
  %call19 = call i32 @BN_is_zero(ptr noundef %4) #8
  %tobool20.not = icmp eq i32 %call19, 0
  br i1 %tobool20.not, label %lor.lhs.false21, label %if.end97

lor.lhs.false21:                                  ; preds = %if.end18
  %5 = load ptr, ptr %sig, align 8
  %call23 = call i32 @BN_is_negative(ptr noundef %5) #8
  %tobool24.not = icmp eq i32 %call23, 0
  br i1 %tobool24.not, label %lor.lhs.false25, label %if.end97

lor.lhs.false25:                                  ; preds = %lor.lhs.false21
  %6 = load ptr, ptr %sig, align 8
  %7 = load ptr, ptr %q, align 8
  %call28 = call i32 @BN_ucmp(ptr noundef %6, ptr noundef %7) #8
  %cmp29 = icmp sgt i32 %call28, -1
  br i1 %cmp29, label %if.end97, label %if.end31

if.end31:                                         ; preds = %lor.lhs.false25
  %s = getelementptr inbounds nuw i8, ptr %sig, i64 8
  %8 = load ptr, ptr %s, align 8
  %call32 = call i32 @BN_is_zero(ptr noundef %8) #8
  %tobool33.not = icmp eq i32 %call32, 0
  br i1 %tobool33.not, label %lor.lhs.false34, label %if.end97

lor.lhs.false34:                                  ; preds = %if.end31
  %9 = load ptr, ptr %s, align 8
  %call36 = call i32 @BN_is_negative(ptr noundef %9) #8
  %tobool37.not = icmp eq i32 %call36, 0
  br i1 %tobool37.not, label %lor.lhs.false38, label %if.end97

lor.lhs.false38:                                  ; preds = %lor.lhs.false34
  %10 = load ptr, ptr %s, align 8
  %11 = load ptr, ptr %q, align 8
  %call41 = call i32 @BN_ucmp(ptr noundef %10, ptr noundef %11) #8
  %cmp42 = icmp sgt i32 %call41, -1
  br i1 %cmp42, label %if.end97, label %if.end44

if.end44:                                         ; preds = %lor.lhs.false38
  %12 = load ptr, ptr %s, align 8
  %13 = load ptr, ptr %q, align 8
  %call47 = call ptr @BN_mod_inverse(ptr noundef nonnull %u2, ptr noundef %12, ptr noundef %13, ptr noundef nonnull %call15) #8
  %cmp48 = icmp eq ptr %call47, null
  br i1 %cmp48, label %if.then96, label %if.end50

if.end50:                                         ; preds = %if.end44
  %shr = lshr exact i32 %call, 3
  %conv = zext nneg i32 %shr to i64
  %spec.select = call i64 @llvm.umin.i64(i64 %digest_len, i64 %conv)
  %call57 = call ptr @BN_bin2bn(ptr noundef %digest, i64 noundef %spec.select, ptr noundef nonnull %u1) #8
  %cmp58 = icmp eq ptr %call57, null
  br i1 %cmp58, label %if.then96, label %if.end61

if.end61:                                         ; preds = %if.end50
  %14 = load ptr, ptr %q, align 8
  %call63 = call i32 @BN_mod_mul(ptr noundef nonnull %u1, ptr noundef nonnull %u1, ptr noundef nonnull %u2, ptr noundef %14, ptr noundef nonnull %call15) #8
  %tobool64.not = icmp eq i32 %call63, 0
  br i1 %tobool64.not, label %if.then96, label %if.end66

if.end66:                                         ; preds = %if.end61
  %15 = load ptr, ptr %sig, align 8
  %16 = load ptr, ptr %q, align 8
  %call69 = call i32 @BN_mod_mul(ptr noundef nonnull %u2, ptr noundef %15, ptr noundef nonnull %u2, ptr noundef %16, ptr noundef nonnull %call15) #8
  %tobool70.not = icmp eq i32 %call69, 0
  br i1 %tobool70.not, label %if.then96, label %if.end72

if.end72:                                         ; preds = %if.end66
  %method_mont_p = getelementptr inbounds nuw i8, ptr %dsa, i64 128
  %method_mont_p_lock = getelementptr inbounds nuw i8, ptr %dsa, i64 72
  %17 = load ptr, ptr %p, align 8
  %call74 = call i32 @BN_MONT_CTX_set_locked(ptr noundef nonnull %method_mont_p, ptr noundef nonnull %method_mont_p_lock, ptr noundef %17, ptr noundef nonnull %call15) #8
  %tobool75.not = icmp eq i32 %call74, 0
  br i1 %tobool75.not, label %if.then96, label %if.end77

if.end77:                                         ; preds = %if.end72
  %18 = load ptr, ptr %g, align 8
  %pub_key = getelementptr inbounds nuw i8, ptr %dsa, i64 32
  %19 = load ptr, ptr %pub_key, align 8
  %20 = load ptr, ptr %p, align 8
  %21 = load ptr, ptr %method_mont_p, align 8
  %call81 = call i32 @BN_mod_exp2_mont(ptr noundef nonnull %t1, ptr noundef %18, ptr noundef nonnull %u1, ptr noundef %19, ptr noundef nonnull %u2, ptr noundef %20, ptr noundef nonnull %call15, ptr noundef %21) #8
  %tobool82.not = icmp eq i32 %call81, 0
  br i1 %tobool82.not, label %if.then96, label %if.end84

if.end84:                                         ; preds = %if.end77
  %22 = load ptr, ptr %q, align 8
  %call86 = call i32 @BN_div(ptr noundef null, ptr noundef nonnull %u1, ptr noundef nonnull %t1, ptr noundef %22, ptr noundef nonnull %call15) #8
  %tobool87.not = icmp eq i32 %call86, 0
  br i1 %tobool87.not, label %if.then96, label %if.end89

if.end89:                                         ; preds = %if.end84
  %23 = load ptr, ptr %sig, align 8
  %call91 = call i32 @BN_ucmp(ptr noundef nonnull %u1, ptr noundef %23) #8
  %cmp92 = icmp eq i32 %call91, 0
  %conv93 = zext i1 %cmp92 to i32
  store i32 %conv93, ptr %out_valid, align 4
  br label %if.end97

if.then96:                                        ; preds = %if.end14, %if.end44, %if.end50, %if.end84, %if.end77, %if.end72, %if.end66, %if.end61
  call void @ERR_put_error(i32 noundef 10, i32 noundef 0, i32 noundef 3, ptr noundef nonnull @.str, i32 noundef 688) #8
  br label %if.end97

if.end97:                                         ; preds = %if.end89, %lor.lhs.false25, %lor.lhs.false21, %if.end18, %lor.lhs.false38, %lor.lhs.false34, %if.end31, %if.then96
  %ret.044 = phi i32 [ 0, %if.then96 ], [ 1, %if.end89 ], [ 1, %lor.lhs.false25 ], [ 1, %lor.lhs.false21 ], [ 1, %if.end18 ], [ 1, %lor.lhs.false38 ], [ 1, %lor.lhs.false34 ], [ 1, %if.end31 ]
  call void @BN_CTX_free(ptr noundef %call15) #8
  call void @BN_free(ptr noundef nonnull %u1) #8
  call void @BN_free(ptr noundef nonnull %u2) #8
  call void @BN_free(ptr noundef nonnull %t1) #8
  br label %return

return:                                           ; preds = %if.end97, %if.then13, %if.then8, %if.then
  %retval.0 = phi i32 [ 0, %if.then8 ], [ 0, %if.then13 ], [ %ret.044, %if.end97 ], [ 0, %if.then ]
  ret i32 %retval.0
}